target datalayout = "e-m:e-p270:32:32-p271:32:32-p272:64:64-i64:64-i128:128-f80:128-n8:16:32:64-S128"
target triple = "x86_64-pc-linux-gnu"

%"class.std::_Function_base" = type { %"union.std::_Any_data", ptr }
%"union.std::_Any_data" = type { %"union.std::_Nocopy_types" }
%"union.std::_Nocopy_types" = type { { i64, i64 } }
%"class.std::function.180" = type { %"class.std::_Function_base", ptr }
%class.anon = type { ptr, ptr }

; Function Attrs: mustprogress nounwind uwtable
define linkonce_odr noundef zeroext i1 @_ZNKSt14_Function_base8_M_emptyEv(ptr noundef nonnull align 8 dereferenceable(24) %0) #6 comdat align 2 {
  %2 = alloca ptr, align 8
  store ptr %0, ptr %2, align 8, !tbaa !177
  %3 = load ptr, ptr %2, align 8
  %4 = getelementptr inbounds nuw %"class.std::_Function_base", ptr %3, i32 0, i32 1
  %5 = load ptr, ptr %4, align 8, !tbaa !176
  %6 = icmp ne ptr %5, null
  %7 = xor i1 %6, true
  ret i1 %7
}

; Function Attrs: mustprogress uwtable
define internal void @_ZNKSt8functionIFvRN12_GLOBAL__N_113xilinx_srl_pmEEEclES2_(ptr noundef nonnull align 8 dereferenceable(32) %0, ptr noundef nonnull align 8 dereferenceable(1136) %1) #4 align 2 {
  %3 = alloca ptr, align 8
  %4 = alloca ptr, align 8
  store ptr %0, ptr %3, align 8, !tbaa !158
  store ptr %1, ptr %4, align 8, !tbaa !148
  %5 = load ptr, ptr %3, align 8
  %6 = call noundef zeroext i1 @_ZNKSt14_Function_base8_M_emptyEv(ptr noundef nonnull align 8 dereferenceable(24) %5)
  br i1 %6, label %7, label %8

7:                                                ; preds = %2
  call void @_ZSt25__throw_bad_function_callv() #20
  unreachable

8:                                                ; preds = %2
  %9 = getelementptr inbounds nuw %"class.std::function.180", ptr %5, i32 0, i32 1
  %10 = load ptr, ptr %9, align 8, !tbaa !174
  %11 = getelementptr inbounds nuw %"class.std::_Function_base", ptr %5, i32 0, i32 0
  %12 = load ptr, ptr %4, align 8, !tbaa !148
  call void %10(ptr noundef nonnull align 8 dereferenceable(16) %11, ptr noundef nonnull align 8 dereferenceable(1136) %12)
  ret void
}

; Function Attrs: inlinehint mustprogress uwtable
define internal void @_ZZN12_GLOBAL__N_113xilinx_srl_pm9run_fixedESt8functionIFvRS0_EEENKUlvE_clEv(ptr noundef nonnull align 8 dereferenceable(16) %0) #9 align 2 {
  %2 = alloca ptr, align 8
  store ptr %0, ptr %2, align 8, !tbaa !171
  %3 = load ptr, ptr %2, align 8
  %4 = getelementptr inbounds nuw %class.anon, ptr %3, i32 0, i32 1
  %5 = load ptr, ptr %4, align 8, !tbaa !160
  %6 = getelementptr inbounds nuw %class.anon, ptr %3, i32 0, i32 0
  %7 = load ptr, ptr %6, align 8, !tbaa !1122
  call void @_ZNKSt8functionIFvRN12_GLOBAL__N_113xilinx_srl_pmEEEclES2_(ptr noundef nonnull align 8 dereferenceable(32) %7, ptr noundef nonnull align 8 dereferenceable(1136) %5)
  ret void
}

; Function Attrs: mustprogress nounwind uwtable
define linkonce_odr noundef ptr @_ZNKSt9_Any_data9_M_accessEv(ptr noundef nonnull align 8 dereferenceable(16) %0) #6 comdat align 2 {
  %2 = alloca ptr, align 8
  store ptr %0, ptr %2, align 8, !tbaa !1067
  %3 = load ptr, ptr %2, align 8
  %4 = getelementptr inbounds [16 x i8], ptr %3, i64 0, i64 0
  ret ptr %4
}

; Function Attrs: mustprogress uwtable
define internal void @_ZSt13__invoke_implIvRZN12_GLOBAL__N_113xilinx_srl_pm9run_fixedESt8functionIFvRS1_EEEUlvE_JEET_St14__invoke_otherOT0_DpOT1_(ptr noundef nonnull align 8 dereferenceable(16) %0) #4 {
  %2 = alloca ptr, align 8
  store ptr %0, ptr %2, align 8, !tbaa !171
  %3 = load ptr, ptr %2, align 8, !tbaa !171
  call void @_ZZN12_GLOBAL__N_113xilinx_srl_pm9run_fixedESt8functionIFvRS0_EEENKUlvE_clEv(ptr noundef nonnull align 8 dereferenceable(16) %3)
  ret void
}

; Function Attrs: mustprogress nounwind uwtable
define internal noundef nonnull align 8 dereferenceable(16) ptr @_ZNKSt9_Any_data9_M_accessIZN12_GLOBAL__N_113xilinx_srl_pm9run_fixedESt8functionIFvRS2_EEEUlvE_EERKT_v(ptr noundef nonnull align 8 dereferenceable(16) %0) #6 align 2 {
  %2 = alloca ptr, align 8
  store ptr %0, ptr %2, align 8, !tbaa !1067
  %3 = load ptr, ptr %2, align 8
  %4 = call noundef ptr @_ZNKSt9_Any_data9_M_accessEv(ptr noundef nonnull align 8 dereferenceable(16) %3) #3
  ret ptr %4
}

; Function Attrs: mustprogress uwtable
define internal void @_ZSt10__invoke_rIvRZN12_GLOBAL__N_113xilinx_srl_pm9run_fixedESt8functionIFvRS1_EEEUlvE_JEENSt9enable_ifIX16is_invocable_r_vIT_T0_DpT1_EES9_E4typeEOSA_DpOSB_(ptr noundef nonnull align 8 dereferenceable(16) %0) #4 {
  %2 = alloca ptr, align 8
  store ptr %0, ptr %2, align 8, !tbaa !171
  %3 = load ptr, ptr %2, align 8, !tbaa !171
  call void @_ZSt13__invoke_implIvRZN12_GLOBAL__N_113xilinx_srl_pm9run_fixedESt8functionIFvRS1_EEEUlvE_JEET_St14__invoke_otherOT0_DpOT1_(ptr noundef nonnull align 8 dereferenceable(16) %3)
  ret void
}

; Function Attrs: mustprogress nounwind uwtable
define internal noundef ptr @_ZNSt14_Function_base13_Base_managerIZN12_GLOBAL__N_113xilinx_srl_pm9run_fixedESt8functionIFvRS2_EEEUlvE_E14_M_get_pointerERKSt9_Any_data(ptr noundef nonnull align 8 dereferenceable(16) %0) #6 align 2 {
  %2 = alloca ptr, align 8
  %3 = alloca ptr, align 8
  store ptr %0, ptr %2, align 8, !tbaa !1067
  call void @llvm.lifetime.start.p0(i64 8, ptr %3) #3
  %4 = load ptr, ptr %2, align 8, !tbaa !1067
  %5 = call noundef nonnull align 8 dereferenceable(16) ptr @_ZNKSt9_Any_data9_M_accessIZN12_GLOBAL__N_113xilinx_srl_pm9run_fixedESt8functionIFvRS2_EEEUlvE_EERKT_v(ptr noundef nonnull align 8 dereferenceable(16) %4) #3
  store ptr %5, ptr %3, align 8, !tbaa !171
  %6 = load ptr, ptr %3, align 8, !tbaa !171
  call void @llvm.lifetime.end.p0(i64 8, ptr %3) #3
  ret ptr %6
}

; Function Attrs: mustprogress uwtable
define internal void @_ZNSt17_Function_handlerIFvvEZN12_GLOBAL__N_113xilinx_srl_pm9run_fixedESt8functionIFvRS2_EEEUlvE_E9_M_invokeERKSt9_Any_data(ptr noundef nonnull align 8 dereferenceable(16) %0) #4 align 2 {
  %2 = alloca ptr, align 8
  store ptr %0, ptr %2, align 8, !tbaa !1067
  %3 = load ptr, ptr %2, align 8, !tbaa !1067
  %4 = call noundef ptr @_ZNSt14_Function_base13_Base_managerIZN12_GLOBAL__N_113xilinx_srl_pm9run_fixedESt8functionIFvRS2_EEEUlvE_E14_M_get_pointerERKSt9_Any_data(ptr noundef nonnull align 8 dereferenceable(16) %3) #3
  call void @_ZSt10__invoke_rIvRZN12_GLOBAL__N_113xilinx_srl_pm9run_fixedESt8functionIFvRS1_EEEUlvE_JEENSt9enable_ifIX16is_invocable_r_vIT_T0_DpT1_EES9_E4typeEOSA_DpOSB_(ptr noundef nonnull align 8 dereferenceable(16) %4)
  ret void
}