; Function Attrs: mustprogress uwtable
define internal void @_ZNSt17_Function_handlerIFvvEZN12_GLOBAL__N_113xilinx_srl_pm9run_fixedESt8functionIFvRS2_EEEUlvE_E9_M_invokeERKSt9_Any_data(ptr noundef nonnull readonly align 8 captures(none) dereferenceable(16) %0) #5 align 2 {
  %.val = load ptr, ptr %0, align 8, !tbaa !971
  %2 = getelementptr inbounds nuw i8, ptr %.val, i64 16
  %3 = load ptr, ptr %2, align 8, !tbaa !119
  %.not.i.i.i.i.i = icmp eq ptr %3, null
  br i1 %.not.i.i.i.i.i, label %4, label %_ZSt10__invoke_rIvRZN12_GLOBAL__N_113xilinx_srl_pm9run_fixedESt8functionIFvRS1_EEEUlvE_JEENSt9enable_ifIX16is_invocable_r_vIT_T0_DpT1_EES9_E4typeEOSA_DpOSB_.exit

4:                                                ; preds = %1
  tail call void @_ZSt25__throw_bad_function_callv() #28
  unreachable

_ZSt10__invoke_rIvRZN12_GLOBAL__N_113xilinx_srl_pm9run_fixedESt8functionIFvRS1_EEEUlvE_JEENSt9enable_ifIX16is_invocable_r_vIT_T0_DpT1_EES9_E4typeEOSA_DpOSB_.exit: ; preds = %1
  %5 = getelementptr inbounds nuw i8, ptr %0, i64 8
  %.val1 = load ptr, ptr %5, align 8, !tbaa !973
  %6 = getelementptr inbounds nuw i8, ptr %.val, i64 24
  %7 = load ptr, ptr %6, align 8, !tbaa !125
  tail call void %7(ptr noundef nonnull align 8 dereferenceable(32) %.val, ptr noundef nonnull align 8 dereferenceable(1136) %.val1)
  ret void
}